; Function Attrs: mustprogress uwtable
define noundef double @_ZNK8QuantLib18NumericHaganPricer18ConundrumIntegrand18firstDerivativeOfFEd(ptr nocapture noundef nonnull readonly align 8 dereferenceable(88) %this, double noundef %x) local_unnamed_addr #7 align 2 {
entry:
  %gFunction_ = getelementptr inbounds nuw i8, ptr %this, i64 72
  %0 = load ptr, ptr %gFunction_, align 8, !tbaa !117
  %cmp.not.i = icmp eq ptr %0, null
  br i1 %cmp.not.i, label %cond.false.i, label %_ZNK5boost10shared_ptrIN8QuantLib9GFunctionEEdeEv.exit, !prof !53

cond.false.i:                                     ; preds = %entry
  tail call void @_ZN5boost16assertion_failedEPKcS1_S1_l(ptr noundef nonnull @.str.25, ptr noundef nonnull @__PRETTY_FUNCTION__._ZNK5boost10shared_ptrIN8QuantLib9GFunctionEEdeEv, ptr noundef nonnull @.str.26, i64 noundef 778)
  %.pre.i = load ptr, ptr %gFunction_, align 8, !tbaa !117
  br label %_ZNK5boost10shared_ptrIN8QuantLib9GFunctionEEdeEv.exit

_ZNK5boost10shared_ptrIN8QuantLib9GFunctionEEdeEv.exit: ; preds = %entry, %cond.false.i
  %1 = phi ptr [ %0, %entry ], [ %.pre.i, %cond.false.i ]
  %vtable = load ptr, ptr %1, align 8, !tbaa !35
  %vfn = getelementptr inbounds i8, ptr %vtable, i64 16
  %2 = load ptr, ptr %vfn, align 8
  %call2 = tail call noundef double %2(ptr noundef nonnull align 8 dereferenceable(8) %1, double noundef %x)
  %3 = load ptr, ptr %gFunction_, align 8, !tbaa !117
  %cmp.not.i4 = icmp eq ptr %3, null
  br i1 %cmp.not.i4, label %cond.false.i5, label %_ZNK5boost10shared_ptrIN8QuantLib9GFunctionEEdeEv.exit7, !prof !53

cond.false.i5:                                    ; preds = %_ZNK5boost10shared_ptrIN8QuantLib9GFunctionEEdeEv.exit
  tail call void @_ZN5boost16assertion_failedEPKcS1_S1_l(ptr noundef nonnull @.str.25, ptr noundef nonnull @__PRETTY_FUNCTION__._ZNK5boost10shared_ptrIN8QuantLib9GFunctionEEdeEv, ptr noundef nonnull @.str.26, i64 noundef 778)
  %.pre.i6 = load ptr, ptr %gFunction_, align 8, !tbaa !117
  br label %_ZNK5boost10shared_ptrIN8QuantLib9GFunctionEEdeEv.exit7

_ZNK5boost10shared_ptrIN8QuantLib9GFunctionEEdeEv.exit7: ; preds = %_ZNK5boost10shared_ptrIN8QuantLib9GFunctionEEdeEv.exit, %cond.false.i5
  %4 = phi ptr [ %3, %_ZNK5boost10shared_ptrIN8QuantLib9GFunctionEEdeEv.exit ], [ %.pre.i6, %cond.false.i5 ]
  %forwardValue_ = getelementptr inbounds nuw i8, ptr %this, i64 24
  %5 = load double, ptr %forwardValue_, align 8, !tbaa !189
  %vtable5 = load ptr, ptr %4, align 8, !tbaa !35
  %vfn6 = getelementptr inbounds i8, ptr %vtable5, i64 16
  %6 = load ptr, ptr %vfn6, align 8
  %call7 = tail call noundef double %6(ptr noundef nonnull align 8 dereferenceable(8) %4, double noundef %5)
  %7 = load ptr, ptr %gFunction_, align 8, !tbaa !117
  %cmp.not.i8 = icmp eq ptr %7, null
  br i1 %cmp.not.i8, label %cond.false.i9, label %_ZNK5boost10shared_ptrIN8QuantLib9GFunctionEEptEv.exit, !prof !53

cond.false.i9:                                    ; preds = %_ZNK5boost10shared_ptrIN8QuantLib9GFunctionEEdeEv.exit7
  tail call void @_ZN5boost16assertion_failedEPKcS1_S1_l(ptr noundef nonnull @.str.25, ptr noundef nonnull @__PRETTY_FUNCTION__._ZNK5boost10shared_ptrIN8QuantLib9GFunctionEEptEv, ptr noundef nonnull @.str.26, i64 noundef 784)
  %.pre.i10 = load ptr, ptr %gFunction_, align 8, !tbaa !117
  br label %_ZNK5boost10shared_ptrIN8QuantLib9GFunctionEEptEv.exit

_ZNK5boost10shared_ptrIN8QuantLib9GFunctionEEptEv.exit: ; preds = %_ZNK5boost10shared_ptrIN8QuantLib9GFunctionEEdeEv.exit7, %cond.false.i9
  %8 = phi ptr [ %7, %_ZNK5boost10shared_ptrIN8QuantLib9GFunctionEEdeEv.exit7 ], [ %.pre.i10, %cond.false.i9 ]
  %vtable10 = load ptr, ptr %8, align 8, !tbaa !35
  %vfn11 = getelementptr inbounds i8, ptr %vtable10, i64 24
  %9 = load ptr, ptr %vfn11, align 8
  %call12 = tail call noundef double %9(ptr noundef nonnull align 8 dereferenceable(8) %8, double noundef %x)
  %div = fdiv double %call2, %call7
  %sub = fadd double %div, -1.000000e+00
  %div13 = fdiv double %call12, %call7
  %strike_ = getelementptr inbounds nuw i8, ptr %this, i64 56
  %10 = load double, ptr %strike_, align 8, !tbaa !193
  %sub14 = fsub double %x, %10
  %11 = tail call double @llvm.fmuladd.f64(double %div13, double %sub14, double %sub)
  ret double %11
}